target datalayout = "e-m:e-p270:32:32-p271:32:32-p272:64:64-i64:64-i128:128-f80:128-n8:16:32:64-S128"
target triple = "x86_64-unknown-linux-gnu"

%"class.base::SampleVector" = type { %"class.base::HistogramSamples", %"class.std::vector", ptr, i64, ptr }
%"class.base::HistogramSamples" = type { ptr, %"struct.base::HistogramSamples::Metadata", ptr }
%"struct.base::HistogramSamples::Metadata" = type <{ i64, i64, i32, [4 x i8] }>
%"class.std::vector" = type { %"struct.std::_Vector_base" }
%"struct.std::_Vector_base" = type { %"struct.std::_Vector_base<int, std::allocator<int>>::_Vector_impl" }
%"struct.std::_Vector_base<int, std::allocator<int>>::_Vector_impl" = type { %"struct.std::_Vector_base<int, std::allocator<int>>::_Vector_impl_data" }
%"struct.std::_Vector_base<int, std::allocator<int>>::_Vector_impl_data" = type { ptr, ptr, ptr }
%"class.base::BucketRanges" = type <{ %"class.std::vector", i32, [4 x i8] }>

; Function Attrs: mustprogress nounwind uwtable
define linkonce_odr dso_local noundef nonnull align 4 dereferenceable(4) ptr @_ZNKSt6vectorIiSaIiEEixEm(ptr noundef nonnull align 8 dereferenceable(24) %this, i64 noundef %__n) #2 comdat align 2 {
entry:
  %this.addr = alloca ptr, align 8
  %__n.addr = alloca i64, align 8
  store ptr %this, ptr %this.addr, align 8
  store i64 %__n, ptr %__n.addr, align 8
  %this1 = load ptr, ptr %this.addr, align 8
  %_M_impl = getelementptr inbounds %"struct.std::_Vector_base", ptr %this1, i32 0, i32 0
  %_M_start = getelementptr inbounds %"struct.std::_Vector_base<int, std::allocator<int>>::_Vector_impl_data", ptr %_M_impl, i32 0, i32 0
  %0 = load ptr, ptr %_M_start, align 8
  %1 = load i64, ptr %__n.addr, align 8
  %add.ptr = getelementptr inbounds i32, ptr %0, i64 %1
  ret ptr %add.ptr
}

; Function Attrs: mustprogress nounwind uwtable
define linkonce_odr dso_local noundef i32 @_ZN4base6subtle25NoBarrier_AtomicIncrementEPVii(ptr noundef %ptr, i32 noundef %increment) #2 comdat {
entry:
  %this.addr.i = alloca ptr, align 8
  %__i.addr.i = alloca i32, align 4
  %__m.addr.i = alloca i32, align 4
  %.atomictmp.i = alloca i32, align 4
  %atomic-temp.i = alloca i32, align 4
  %ptr.addr = alloca ptr, align 8
  %increment.addr = alloca i32, align 4
  store ptr %ptr, ptr %ptr.addr, align 8
  store i32 %increment, ptr %increment.addr, align 4
  %0 = load i32, ptr %increment.addr, align 4
  %1 = load ptr, ptr %ptr.addr, align 8
  %2 = load i32, ptr %increment.addr, align 4
  store ptr %1, ptr %this.addr.i, align 8
  store i32 %2, ptr %__i.addr.i, align 4
  store i32 0, ptr %__m.addr.i, align 4
  %this1.i = load ptr, ptr %this.addr.i, align 8
  %3 = load i32, ptr %__m.addr.i, align 4
  %4 = load i32, ptr %__i.addr.i, align 4
  store i32 %4, ptr %.atomictmp.i, align 4
  switch i32 %3, label %monotonic.i [
    i32 1, label %acquire.i
    i32 2, label %acquire.i
    i32 3, label %release.i
    i32 4, label %acqrel.i
    i32 5, label %seqcst.i
  ]

monotonic.i:                                      ; preds = %entry
  %5 = load i32, ptr %.atomictmp.i, align 4
  %6 = atomicrmw volatile add ptr %this1.i, i32 %5 monotonic, align 4
  store i32 %6, ptr %atomic-temp.i, align 4
  br label %_ZNVSt13__atomic_baseIiE9fetch_addEiSt12memory_order.exit

acquire.i:                                        ; preds = %entry, %entry
  %7 = load i32, ptr %.atomictmp.i, align 4
  %8 = atomicrmw volatile add ptr %this1.i, i32 %7 acquire, align 4
  store i32 %8, ptr %atomic-temp.i, align 4
  br label %_ZNVSt13__atomic_baseIiE9fetch_addEiSt12memory_order.exit

release.i:                                        ; preds = %entry
  %9 = load i32, ptr %.atomictmp.i, align 4
  %10 = atomicrmw volatile add ptr %this1.i, i32 %9 release, align 4
  store i32 %10, ptr %atomic-temp.i, align 4
  br label %_ZNVSt13__atomic_baseIiE9fetch_addEiSt12memory_order.exit

acqrel.i:                                         ; preds = %entry
  %11 = load i32, ptr %.atomictmp.i, align 4
  %12 = atomicrmw volatile add ptr %this1.i, i32 %11 acq_rel, align 4
  store i32 %12, ptr %atomic-temp.i, align 4
  br label %_ZNVSt13__atomic_baseIiE9fetch_addEiSt12memory_order.exit

seqcst.i:                                         ; preds = %entry
  %13 = load i32, ptr %.atomictmp.i, align 4
  %14 = atomicrmw volatile add ptr %this1.i, i32 %13 seq_cst, align 4
  store i32 %14, ptr %atomic-temp.i, align 4
  br label %_ZNVSt13__atomic_baseIiE9fetch_addEiSt12memory_order.exit

_ZNVSt13__atomic_baseIiE9fetch_addEiSt12memory_order.exit: ; preds = %seqcst.i, %acqrel.i, %release.i, %acquire.i, %monotonic.i
  %15 = load i32, ptr %atomic-temp.i, align 4
  %add = add nsw i32 %0, %15
  ret i32 %add
}

; Function Attrs: mustprogress nounwind uwtable
define linkonce_odr dso_local noundef i32 @_ZNK4base12BucketRanges5rangeEm(ptr noundef nonnull align 8 dereferenceable(28) %this, i64 noundef %i) #2 comdat align 2 {
entry:
  %this.addr = alloca ptr, align 8
  %i.addr = alloca i64, align 8
  store ptr %this, ptr %this.addr, align 8
  store i64 %i, ptr %i.addr, align 8
  %this1 = load ptr, ptr %this.addr, align 8
  %ranges_ = getelementptr inbounds %"class.base::BucketRanges", ptr %this1, i32 0, i32 0
  %0 = load i64, ptr %i.addr, align 8
  %call = call noundef nonnull align 4 dereferenceable(4) ptr @_ZNKSt6vectorIiSaIiEEixEm(ptr noundef nonnull align 8 dereferenceable(24) %ranges_, i64 noundef %0) #8
  %1 = load i32, ptr %call, align 4
  ret i32 %1
}

; Function Attrs: mustprogress uwtable
define dso_local noundef zeroext i1 @_ZN4base12SampleVector15AddSubtractImplEPNS_19SampleCountIteratorENS_16HistogramSamples8OperatorE(ptr noundef nonnull align 8 dereferenceable(88) %this, ptr noundef %iter, i32 noundef %op) unnamed_addr #0 align 2 {
entry:
  %retval = alloca i1, align 1
  %this.addr = alloca ptr, align 8
  %iter.addr = alloca ptr, align 8
  %op.addr = alloca i32, align 4
  %min = alloca i32, align 4
  %max = alloca i32, align 4
  %count = alloca i32, align 4
  %index = alloca i64, align 8
  store ptr %this, ptr %this.addr, align 8
  store ptr %iter, ptr %iter.addr, align 8
  store i32 %op, ptr %op.addr, align 4
  %this1 = load ptr, ptr %this.addr, align 8
  store i64 0, ptr %index, align 8
  br label %while.cond

while.cond:                                       ; preds = %if.end18, %entry
  %0 = load i64, ptr %index, align 8
  %counts_size_ = getelementptr inbounds %"class.base::SampleVector", ptr %this1, i32 0, i32 3
  %1 = load i64, ptr %counts_size_, align 8
  %cmp = icmp ult i64 %0, %1
  br i1 %cmp, label %land.rhs, label %land.end

land.rhs:                                         ; preds = %while.cond
  %2 = load ptr, ptr %iter.addr, align 8
  %vtable = load ptr, ptr %2, align 8
  %vfn = getelementptr inbounds ptr, ptr %vtable, i64 2
  %3 = load ptr, ptr %vfn, align 8
  %call = call noundef zeroext i1 %3(ptr noundef nonnull align 8 dereferenceable(8) %2)
  %lnot = xor i1 %call, true
  br label %land.end

land.end:                                         ; preds = %land.rhs, %while.cond
  %4 = phi i1 [ false, %while.cond ], [ %lnot, %land.rhs ]
  br i1 %4, label %while.body, label %while.end

while.body:                                       ; preds = %land.end
  %5 = load ptr, ptr %iter.addr, align 8
  %vtable2 = load ptr, ptr %5, align 8
  %vfn3 = getelementptr inbounds ptr, ptr %vtable2, i64 4
  %6 = load ptr, ptr %vfn3, align 8
  call void %6(ptr noundef nonnull align 8 dereferenceable(8) %5, ptr noundef %min, ptr noundef %max, ptr noundef %count)
  %7 = load i32, ptr %min, align 4
  %bucket_ranges_ = getelementptr inbounds %"class.base::SampleVector", ptr %this1, i32 0, i32 4
  %8 = load ptr, ptr %bucket_ranges_, align 8
  %9 = load i64, ptr %index, align 8
  %call4 = call noundef i32 @_ZNK4base12BucketRanges5rangeEm(ptr noundef nonnull align 8 dereferenceable(28) %8, i64 noundef %9)
  %cmp5 = icmp eq i32 %7, %call4
  br i1 %cmp5, label %land.lhs.true, label %if.else

land.lhs.true:                                    ; preds = %while.body
  %10 = load i32, ptr %max, align 4
  %bucket_ranges_6 = getelementptr inbounds %"class.base::SampleVector", ptr %this1, i32 0, i32 4
  %11 = load ptr, ptr %bucket_ranges_6, align 8
  %12 = load i64, ptr %index, align 8
  %add = add i64 %12, 1
  %call7 = call noundef i32 @_ZNK4base12BucketRanges5rangeEm(ptr noundef nonnull align 8 dereferenceable(28) %11, i64 noundef %add)
  %cmp8 = icmp eq i32 %10, %call7
  br i1 %cmp8, label %if.then, label %if.else

if.then:                                          ; preds = %land.lhs.true
  %counts_ = getelementptr inbounds %"class.base::SampleVector", ptr %this1, i32 0, i32 2
  %13 = load ptr, ptr %counts_, align 8
  %14 = load i64, ptr %index, align 8
  %arrayidx = getelementptr inbounds i32, ptr %13, i64 %14
  %15 = load i32, ptr %op.addr, align 4
  %cmp9 = icmp eq i32 %15, 0
  br i1 %cmp9, label %cond.true, label %cond.false

cond.true:                                        ; preds = %if.then
  %16 = load i32, ptr %count, align 4
  br label %cond.end

cond.false:                                       ; preds = %if.then
  %17 = load i32, ptr %count, align 4
  %sub = sub nsw i32 0, %17
  br label %cond.end

cond.end:                                         ; preds = %cond.false, %cond.true
  %cond = phi i32 [ %16, %cond.true ], [ %sub, %cond.false ]
  %call10 = call noundef i32 @_ZN4base6subtle25NoBarrier_AtomicIncrementEPVii(ptr noundef %arrayidx, i32 noundef %cond)
  %18 = load ptr, ptr %iter.addr, align 8
  %vtable11 = load ptr, ptr %18, align 8
  %vfn12 = getelementptr inbounds ptr, ptr %vtable11, i64 3
  %19 = load ptr, ptr %vfn12, align 8
  call void %19(ptr noundef nonnull align 8 dereferenceable(8) %18)
  br label %if.end18

if.else:                                          ; preds = %land.lhs.true, %while.body
  %20 = load i32, ptr %min, align 4
  %bucket_ranges_13 = getelementptr inbounds %"class.base::SampleVector", ptr %this1, i32 0, i32 4
  %21 = load ptr, ptr %bucket_ranges_13, align 8
  %22 = load i64, ptr %index, align 8
  %call14 = call noundef i32 @_ZNK4base12BucketRanges5rangeEm(ptr noundef nonnull align 8 dereferenceable(28) %21, i64 noundef %22)
  %cmp15 = icmp sgt i32 %20, %call14
  br i1 %cmp15, label %if.then16, label %if.else17

if.then16:                                        ; preds = %if.else
  %23 = load i64, ptr %index, align 8
  %inc = add i64 %23, 1
  store i64 %inc, ptr %index, align 8
  br label %if.end

if.else17:                                        ; preds = %if.else
  store i1 false, ptr %retval, align 1
  br label %return

if.end:                                           ; preds = %if.then16
  br label %if.end18

if.end18:                                         ; preds = %if.end, %cond.end
  br label %while.cond, !llvm.loop !7

while.end:                                        ; preds = %land.end
  %24 = load ptr, ptr %iter.addr, align 8
  %vtable19 = load ptr, ptr %24, align 8
  %vfn20 = getelementptr inbounds ptr, ptr %vtable19, i64 2
  %25 = load ptr, ptr %vfn20, align 8
  %call21 = call noundef zeroext i1 %25(ptr noundef nonnull align 8 dereferenceable(8) %24)
  store i1 %call21, ptr %retval, align 1
  br label %return

return:                                           ; preds = %while.end, %if.else17
  %26 = load i1, ptr %retval, align 1
  ret i1 %26
}