; Function Attrs: mustprogress uwtable
define dso_local noundef zeroext i1 @_ZN4base12SampleVector15AddSubtractImplEPNS_19SampleCountIteratorENS_16HistogramSamples8OperatorE(ptr nocapture noundef nonnull readonly align 8 dereferenceable(88) %this, ptr noundef %iter, i32 noundef %op) unnamed_addr #0 align 2 {
entry:
  %min = alloca i32, align 4
  %max = alloca i32, align 4
  %count = alloca i32, align 4
  %counts_size_ = getelementptr inbounds i8, ptr %this, i64 72
  %0 = load i64, ptr %counts_size_, align 8
  %cmp11.not = icmp eq i64 %0, 0
  br i1 %cmp11.not, label %while.end, label %land.rhs.lr.ph

land.rhs.lr.ph:                                   ; preds = %entry
  %bucket_ranges_ = getelementptr inbounds i8, ptr %this, i64 80
  %counts_ = getelementptr inbounds i8, ptr %this, i64 64
  %cmp9 = icmp eq i32 %op, 0
  br i1 %cmp9, label %land.rhs.us, label %land.rhs

land.rhs.us:                                      ; preds = %land.rhs.lr.ph, %if.end18.us
  %index.012.us = phi i64 [ %index.1.us, %if.end18.us ], [ 0, %land.rhs.lr.ph ]
  %vtable.us = load ptr, ptr %iter, align 8
  %vfn.us = getelementptr inbounds i8, ptr %vtable.us, i64 16
  %1 = load ptr, ptr %vfn.us, align 8
  %call.us = call noundef zeroext i1 %1(ptr noundef nonnull align 8 dereferenceable(8) %iter)
  br i1 %call.us, label %while.end, label %while.body.us

while.body.us:                                    ; preds = %land.rhs.us
  %vtable2.us = load ptr, ptr %iter, align 8
  %vfn3.us = getelementptr inbounds i8, ptr %vtable2.us, i64 32
  %2 = load ptr, ptr %vfn3.us, align 8
  call void %2(ptr noundef nonnull align 8 dereferenceable(8) %iter, ptr noundef nonnull %min, ptr noundef nonnull %max, ptr noundef nonnull %count)
  %3 = load i32, ptr %min, align 4
  %4 = load ptr, ptr %bucket_ranges_, align 8
  %5 = load ptr, ptr %4, align 8
  %add.ptr.i.i.us = getelementptr i32, ptr %5, i64 %index.012.us
  %6 = load i32, ptr %add.ptr.i.i.us, align 4
  %cmp5.us = icmp eq i32 %3, %6
  br i1 %cmp5.us, label %land.lhs.true.us, label %if.else.us

land.lhs.true.us:                                 ; preds = %while.body.us
  %7 = load i32, ptr %max, align 4
  %add.ptr.i.i9.us = getelementptr i8, ptr %add.ptr.i.i.us, i64 4
  %8 = load i32, ptr %add.ptr.i.i9.us, align 4
  %cmp8.us = icmp eq i32 %7, %8
  br i1 %cmp8.us, label %if.then.us, label %if.else.us

if.else.us:                                       ; preds = %land.lhs.true.us, %while.body.us
  %cmp15.us = icmp sgt i32 %3, %6
  br i1 %cmp15.us, label %if.then16.us, label %return

if.then16.us:                                     ; preds = %if.else.us
  %inc.us = add nuw i64 %index.012.us, 1
  br label %if.end18.us

if.then.us:                                       ; preds = %land.lhs.true.us
  %9 = load ptr, ptr %counts_, align 8
  %arrayidx.us = getelementptr inbounds i32, ptr %9, i64 %index.012.us
  %10 = load i32, ptr %count, align 4
  %11 = atomicrmw volatile add ptr %arrayidx.us, i32 %10 monotonic, align 4
  %vtable11.us = load ptr, ptr %iter, align 8
  %vfn12.us = getelementptr inbounds i8, ptr %vtable11.us, i64 24
  %12 = load ptr, ptr %vfn12.us, align 8
  call void %12(ptr noundef nonnull align 8 dereferenceable(8) %iter)
  br label %if.end18.us

if.end18.us:                                      ; preds = %if.then.us, %if.then16.us
  %index.1.us = phi i64 [ %index.012.us, %if.then.us ], [ %inc.us, %if.then16.us ]
  %13 = load i64, ptr %counts_size_, align 8
  %cmp.us = icmp ult i64 %index.1.us, %13
  br i1 %cmp.us, label %land.rhs.us, label %while.end, !llvm.loop !7

land.rhs:                                         ; preds = %land.rhs.lr.ph, %if.end18
  %index.012 = phi i64 [ %index.1, %if.end18 ], [ 0, %land.rhs.lr.ph ]
  %vtable = load ptr, ptr %iter, align 8
  %vfn = getelementptr inbounds i8, ptr %vtable, i64 16
  %14 = load ptr, ptr %vfn, align 8
  %call = call noundef zeroext i1 %14(ptr noundef nonnull align 8 dereferenceable(8) %iter)
  br i1 %call, label %while.end, label %while.body

while.body:                                       ; preds = %land.rhs
  %vtable2 = load ptr, ptr %iter, align 8
  %vfn3 = getelementptr inbounds i8, ptr %vtable2, i64 32
  %15 = load ptr, ptr %vfn3, align 8
  call void %15(ptr noundef nonnull align 8 dereferenceable(8) %iter, ptr noundef nonnull %min, ptr noundef nonnull %max, ptr noundef nonnull %count)
  %16 = load i32, ptr %min, align 4
  %17 = load ptr, ptr %bucket_ranges_, align 8
  %18 = load ptr, ptr %17, align 8
  %add.ptr.i.i = getelementptr i32, ptr %18, i64 %index.012
  %19 = load i32, ptr %add.ptr.i.i, align 4
  %cmp5 = icmp eq i32 %16, %19
  br i1 %cmp5, label %land.lhs.true, label %if.else

land.lhs.true:                                    ; preds = %while.body
  %20 = load i32, ptr %max, align 4
  %add.ptr.i.i9 = getelementptr i8, ptr %add.ptr.i.i, i64 4
  %21 = load i32, ptr %add.ptr.i.i9, align 4
  %cmp8 = icmp eq i32 %20, %21
  br i1 %cmp8, label %if.then, label %if.else

if.then:                                          ; preds = %land.lhs.true
  %22 = load ptr, ptr %counts_, align 8
  %arrayidx = getelementptr inbounds i32, ptr %22, i64 %index.012
  %23 = load i32, ptr %count, align 4
  %sub = sub nsw i32 0, %23
  %24 = atomicrmw volatile add ptr %arrayidx, i32 %sub monotonic, align 4
  %vtable11 = load ptr, ptr %iter, align 8
  %vfn12 = getelementptr inbounds i8, ptr %vtable11, i64 24
  %25 = load ptr, ptr %vfn12, align 8
  call void %25(ptr noundef nonnull align 8 dereferenceable(8) %iter)
  br label %if.end18

if.else:                                          ; preds = %land.lhs.true, %while.body
  %cmp15 = icmp sgt i32 %16, %19
  br i1 %cmp15, label %if.then16, label %return

if.then16:                                        ; preds = %if.else
  %inc = add nuw i64 %index.012, 1
  br label %if.end18

if.end18:                                         ; preds = %if.then16, %if.then
  %index.1 = phi i64 [ %index.012, %if.then ], [ %inc, %if.then16 ]
  %26 = load i64, ptr %counts_size_, align 8
  %cmp = icmp ult i64 %index.1, %26
  br i1 %cmp, label %land.rhs, label %while.end, !llvm.loop !7

while.end:                                        ; preds = %land.rhs, %if.end18, %land.rhs.us, %if.end18.us, %entry
  %vtable19 = load ptr, ptr %iter, align 8
  %vfn20 = getelementptr inbounds i8, ptr %vtable19, i64 16
  %27 = load ptr, ptr %vfn20, align 8
  %call21 = call noundef zeroext i1 %27(ptr noundef nonnull align 8 dereferenceable(8) %iter)
  br label %return

return:                                           ; preds = %if.else, %if.else.us, %while.end
  %retval.0 = phi i1 [ %call21, %while.end ], [ false, %if.else.us ], [ false, %if.else ]
  ret i1 %retval.0
}